; Function Attrs: mustprogress uwtable
define hidden noundef zeroext i1 @_ZNK2cv8tinyxml210XMLComment12ShallowEqualEPKNS0_7XMLNodeE(ptr noundef nonnull align 8 captures(none) dereferenceable(88) %0, ptr noundef %1) unnamed_addr #4 align 2 {
  %3 = load ptr, ptr %1, align 8, !tbaa !39
  %4 = getelementptr inbounds nuw i8, ptr %3, i64 64
  %5 = load ptr, ptr %4, align 8
  %6 = tail call noundef ptr %5(ptr noundef nonnull align 8 dereferenceable(88) %1)
  %.not = icmp eq ptr %6, null
  br i1 %.not, label %_ZN2cv8tinyxml27XMLUtil11StringEqualEPKcS3_i.exit, label %7

7:                                                ; preds = %2
  %8 = load ptr, ptr %1, align 8, !tbaa !39
  %9 = getelementptr inbounds nuw i8, ptr %8, i64 64
  %10 = load ptr, ptr %9, align 8
  %11 = tail call noundef ptr %10(ptr noundef nonnull align 8 dereferenceable(88) %1)
  %12 = getelementptr inbounds nuw i8, ptr %11, i64 24
  %13 = tail call noundef ptr @_ZN2cv8tinyxml27StrPair6GetStrEv(ptr noundef nonnull align 8 dereferenceable(24) %12)
  %14 = getelementptr inbounds nuw i8, ptr %0, i64 24
  %15 = tail call noundef ptr @_ZN2cv8tinyxml27StrPair6GetStrEv(ptr noundef nonnull align 8 dereferenceable(24) %14)
  %16 = icmp eq ptr %13, %15
  br i1 %16, label %_ZN2cv8tinyxml27XMLUtil11StringEqualEPKcS3_i.exit, label %.preheader.i

.preheader.i:                                     ; preds = %7
  %17 = load i8, ptr %13, align 1, !tbaa !12
  %.not26.i = icmp eq i8 %17, 0
  br i1 %.not26.i, label %.critedge.i.thread, label %.lr.ph.i

.lr.ph.i:                                         ; preds = %.preheader.i, %22
  %18 = phi i8 [ %26, %22 ], [ %17, %.preheader.i ]
  %.029.i = phi i32 [ %25, %22 ], [ 0, %.preheader.i ]
  %.01628.i = phi ptr [ %24, %22 ], [ %15, %.preheader.i ]
  %.01727.i = phi ptr [ %23, %22 ], [ %13, %.preheader.i ]
  %19 = load i8, ptr %.01628.i, align 1, !tbaa !12
  %20 = icmp eq i8 %18, %19
  %21 = icmp ne i32 %.029.i, 2147483647
  %or.cond23.i = select i1 %20, i1 %21, i1 false
  br i1 %or.cond23.i, label %22, label %.critedge.thread.i

22:                                               ; preds = %.lr.ph.i
  %23 = getelementptr inbounds nuw i8, ptr %.01727.i, i64 1
  %24 = getelementptr inbounds nuw i8, ptr %.01628.i, i64 1
  %25 = add nuw nsw i32 %.029.i, 1
  %26 = load i8, ptr %23, align 1, !tbaa !12
  %.not.i = icmp eq i8 %26, 0
  br i1 %.not.i, label %.critedge.i, label %.lr.ph.i, !llvm.loop !32

.critedge.i:                                      ; preds = %22
  %27 = icmp eq i32 %25, 2147483647
  br i1 %27, label %_ZN2cv8tinyxml27XMLUtil11StringEqualEPKcS3_i.exit, label %.critedge.i.thread

.critedge.thread.i:                               ; preds = %.lr.ph.i
  %28 = icmp eq i32 %.029.i, 2147483647
  br i1 %28, label %_ZN2cv8tinyxml27XMLUtil11StringEqualEPKcS3_i.exit, label %.thread.i

.critedge.i.thread:                               ; preds = %.preheader.i, %.critedge.i
  %.016.lcssa.i5 = phi ptr [ %24, %.critedge.i ], [ %15, %.preheader.i ]
  %29 = load i8, ptr %.016.lcssa.i5, align 1, !tbaa !12
  %30 = icmp eq i8 %29, 0
  br i1 %30, label %_ZN2cv8tinyxml27XMLUtil11StringEqualEPKcS3_i.exit, label %.thread.i

.thread.i:                                        ; preds = %.critedge.i.thread, %.critedge.thread.i
  br label %_ZN2cv8tinyxml27XMLUtil11StringEqualEPKcS3_i.exit

_ZN2cv8tinyxml27XMLUtil11StringEqualEPKcS3_i.exit: ; preds = %.thread.i, %.critedge.i.thread, %.critedge.thread.i, %.critedge.i, %7, %2
  %31 = phi i1 [ false, %2 ], [ false, %.thread.i ], [ true, %7 ], [ true, %.critedge.i.thread ], [ true, %.critedge.i ], [ true, %.critedge.thread.i ]
  ret i1 %31
}